; Function Attrs: nounwind uwtable
define internal fastcc void @RelationInvalidateRelation(ptr noundef captures(none) initializes((34, 35)) %0) unnamed_addr #0 {
  %2 = getelementptr inbounds nuw i8, ptr %0, i64 16
  %3 = load ptr, ptr %2, align 8
  %.not.i = icmp eq ptr %3, null
  br i1 %.not.i, label %RelationCloseSmgr.exit, label %4

4:                                                ; preds = %1
  tail call void @smgrunpin(ptr noundef nonnull %3) #13
  %5 = load ptr, ptr %2, align 8
  tail call void @smgrclose(ptr noundef %5) #13
  store ptr null, ptr %2, align 8
  br label %RelationCloseSmgr.exit

RelationCloseSmgr.exit:                           ; preds = %1, %4
  %6 = getelementptr inbounds nuw i8, ptr %0, i64 456
  %7 = load ptr, ptr %6, align 8
  %.not = icmp eq ptr %7, null
  br i1 %.not, label %9, label %8

8:                                                ; preds = %RelationCloseSmgr.exit
  tail call void @pfree(ptr noundef nonnull %7) #13
  br label %9

9:                                                ; preds = %8, %RelationCloseSmgr.exit
  store ptr null, ptr %6, align 8
  %10 = getelementptr inbounds nuw i8, ptr %0, i64 34
  store i8 0, ptr %10, align 2
  ret void
}